target datalayout = "e-m:e-p270:32:32-p271:32:32-p272:64:64-i64:64-i128:128-f80:128-n8:16:32:64-S128"
target triple = "x86_64-pc-linux-gnu"

; Function Attrs: nounwind uwtable
define dso_local i32 @opt_legacy_okay() #0 {
  %1 = alloca i32, align 4
  %2 = alloca i32, align 4
  %3 = alloca i32, align 4
  %4 = alloca i32, align 4
  call void @llvm.lifetime.start.p0(i64 4, ptr %2) #12
  %5 = call i32 @opt_provider_option_given()
  store i32 %5, ptr %2, align 4, !tbaa !25
  call void @llvm.lifetime.start.p0(i64 4, ptr %3) #12
  %6 = call ptr @app_get0_libctx()
  %7 = icmp ne ptr %6, null
  br i1 %7, label %11, label %8

8:                                                ; preds = %0
  %9 = call ptr @app_get0_propq()
  %10 = icmp ne ptr %9, null
  br label %11

11:                                               ; preds = %8, %0
  %12 = phi i1 [ true, %0 ], [ %10, %8 ]
  %13 = zext i1 %12 to i32
  store i32 %13, ptr %3, align 4, !tbaa !25
  %14 = load i32, ptr %2, align 4, !tbaa !25
  %15 = icmp ne i32 %14, 0
  br i1 %15, label %19, label %16

16:                                               ; preds = %11
  %17 = load i32, ptr %3, align 4, !tbaa !25
  %18 = icmp ne i32 %17, 0
  br i1 %18, label %19, label %20

19:                                               ; preds = %16, %11
  store i32 0, ptr %1, align 4
  store i32 1, ptr %4, align 4
  br label %21

20:                                               ; preds = %16
  store i32 1, ptr %1, align 4
  store i32 1, ptr %4, align 4
  br label %21

21:                                               ; preds = %20, %19
  call void @llvm.lifetime.end.p0(i64 4, ptr %3) #12
  call void @llvm.lifetime.end.p0(i64 4, ptr %2) #12
  %22 = load i32, ptr %1, align 4
  ret i32 %22
}