; Function Attrs: nounwind uwtable
define dso_local range(i32 0, 2) i32 @opt_legacy_okay() local_unnamed_addr #0 {
  %1 = tail call i32 @opt_provider_option_given() #27
  %2 = tail call ptr @app_get0_libctx() #27
  %.not = icmp eq ptr %2, null
  br i1 %.not, label %3, label %6

3:                                                ; preds = %0
  %4 = tail call ptr @app_get0_propq() #27
  %5 = icmp ne ptr %4, null
  br label %6

6:                                                ; preds = %3, %0
  %7 = phi i1 [ true, %0 ], [ %5, %3 ]
  %8 = icmp ne i32 %1, 0
  %or.cond = select i1 %8, i1 true, i1 %7
  %not.or.cond = xor i1 %or.cond, true
  %. = zext i1 %not.or.cond to i32
  ret i32 %.
}